; Function Attrs: mustprogress uwtable
define noundef zeroext i1 @_ZNK32pxrInternal_v0_24__pxrReserved__12UsdAttribute11ClearAtTimeENS_11UsdTimeCodeE(ptr noundef nonnull align 8 dereferenceable(32) %0, double %1) local_unnamed_addr #0 align 2 {
  %3 = getelementptr inbounds nuw i8, ptr %0, i64 8
  %4 = load ptr, ptr %3, align 8
  %.not.i.i = icmp eq ptr %4, null
  br i1 %.not.i.i, label %9, label %5

5:                                                ; preds = %2
  %6 = getelementptr inbounds nuw i8, ptr %4, i64 56
  %7 = load i64, ptr %6, align 8
  %8 = and i64 %7, 2048
  %.not5.i.i = icmp eq i64 %8, 0
  br i1 %.not5.i.i, label %_ZNK32pxrInternal_v0_24__pxrReserved__9UsdObject9_GetStageEv.exit, label %9

9:                                                ; preds = %5, %2
  tail call void @_ZN32pxrInternal_v0_24__pxrReserved__31Usd_ThrowExpiredPrimAccessErrorEPKNS_12Usd_PrimDataE(ptr noundef %4)
  br label %_ZNK32pxrInternal_v0_24__pxrReserved__9UsdObject9_GetStageEv.exit

_ZNK32pxrInternal_v0_24__pxrReserved__9UsdObject9_GetStageEv.exit: ; preds = %5, %9
  %10 = load ptr, ptr %4, align 8
  %11 = tail call noundef zeroext i1 @_ZN32pxrInternal_v0_24__pxrReserved__8UsdStage11_ClearValueENS_11UsdTimeCodeERKNS_12UsdAttributeE(ptr noundef nonnull align 8 dereferenceable(1282) %10, double %1, ptr noundef nonnull align 8 dereferenceable(32) %0)
  ret i1 %11
}